; Function Attrs: mustprogress nofree nounwind willreturn memory(read) uwtable
define noundef zeroext i1 @_ZNK8facebook5velox4exec4Expr10isConstantEv(ptr nocapture noundef nonnull readonly align 8 dereferenceable(442) %this) unnamed_addr #10 align 2 {
entry:
  %deterministic_.i = getelementptr inbounds i8, ptr %this, i64 249
  %0 = load i8, ptr %deterministic_.i, align 1
  %1 = and i8 %0, 1
  %tobool.i.not = icmp eq i8 %1, 0
  br i1 %tobool.i.not, label %return, label %if.end

if.end:                                           ; preds = %entry
  %inputs_ = getelementptr inbounds i8, ptr %this, i64 24
  %2 = load ptr, ptr %inputs_, align 8
  %_M_finish.i = getelementptr inbounds i8, ptr %this, i64 32
  %3 = load ptr, ptr %_M_finish.i, align 8
  %cmp.i.not5 = icmp eq ptr %2, %3
  br i1 %cmp.i.not5, label %return, label %for.body

for.cond:                                         ; preds = %dynamic_cast.end
  %incdec.ptr.i = getelementptr inbounds i8, ptr %__begin2.sroa.0.06, i64 16
  %cmp.i.not = icmp eq ptr %incdec.ptr.i, %3
  br i1 %cmp.i.not, label %return, label %for.body

for.body:                                         ; preds = %if.end, %for.cond
  %__begin2.sroa.0.06 = phi ptr [ %incdec.ptr.i, %for.cond ], [ %2, %if.end ]
  %4 = load ptr, ptr %__begin2.sroa.0.06, align 8
  %5 = icmp eq ptr %4, null
  br i1 %5, label %return, label %dynamic_cast.end

dynamic_cast.end:                                 ; preds = %for.body
  %6 = tail call ptr @__dynamic_cast(ptr nonnull %4, ptr nonnull @_ZTIN8facebook5velox4exec4ExprE, ptr nonnull @_ZTIN8facebook5velox4exec12ConstantExprE, i64 0) #31
  %tobool.not = icmp eq ptr %6, null
  br i1 %tobool.not, label %return, label %for.cond

return:                                           ; preds = %dynamic_cast.end, %for.cond, %for.body, %if.end, %entry
  %retval.0 = phi i1 [ false, %entry ], [ true, %if.end ], [ false, %dynamic_cast.end ], [ true, %for.cond ], [ false, %for.body ]
  ret i1 %retval.0
}